target datalayout = "e-m:e-p270:32:32-p271:32:32-p272:64:64-i64:64-i128:128-f80:128-n8:16:32:64-S128"
target triple = "x86_64-pc-linux-gnu"

%class.G1PhaseDependentSeq = type { %class.TruncatedSeq, %class.TruncatedSeq }
%class.TruncatedSeq = type { %class.AbsSeq, ptr, i32, i32 }
%class.AbsSeq = type { ptr, i32, double, double, double, double, double }
%class.G1Predictions = type { double }
%class.G1Analytics = type { ptr, %class.TruncatedSeq, %class.TruncatedSeq, %class.TruncatedSeq, %class.TruncatedSeq, double, %class.TruncatedSeq, %class.TruncatedSeq, %class.TruncatedSeq, %class.G1PhaseDependentSeq, %class.G1PhaseDependentSeq, %class.G1PhaseDependentSeq, %class.G1PhaseDependentSeq, %class.G1PhaseDependentSeq, %class.G1PhaseDependentSeq, %class.G1PhaseDependentSeq, %class.G1PhaseDependentSeq, %class.TruncatedSeq, %class.TruncatedSeq, %class.TruncatedSeq, %class.TruncatedSeq, %class.TruncatedSeq, double, double }

; Function Attrs: mustprogress nounwind uwtable
define linkonce_odr hidden noundef i32 @_ZNK6AbsSeq3numEv(ptr noundef nonnull align 8 dereferenceable(56) %0) #1 comdat align 2 {
  %2 = alloca ptr, align 8
  store ptr %0, ptr %2, align 8
  %3 = load ptr, ptr %2, align 8
  %4 = getelementptr inbounds %class.AbsSeq, ptr %3, i32 0, i32 1
  %5 = load i32, ptr %4, align 8
  ret i32 %5
}

; Function Attrs: mustprogress nounwind uwtable
define linkonce_odr hidden noundef double @_ZNK13G1Predictions15stddev_estimateEPK12TruncatedSeq(ptr noundef nonnull align 8 dereferenceable(8) %0, ptr noundef %1) #1 comdat align 2 {
  %3 = alloca ptr, align 8
  %4 = alloca ptr, align 8
  %5 = alloca double, align 8
  %6 = alloca i32, align 4
  store ptr %0, ptr %3, align 8
  store ptr %1, ptr %4, align 8
  %7 = load ptr, ptr %4, align 8
  %8 = call noundef double @_ZNK6AbsSeq3dsdEv(ptr noundef nonnull align 8 dereferenceable(56) %7)
  store double %8, ptr %5, align 8
  %9 = load ptr, ptr %4, align 8
  %10 = call noundef i32 @_ZNK6AbsSeq3numEv(ptr noundef nonnull align 8 dereferenceable(56) %9)
  store i32 %10, ptr %6, align 4
  %11 = load i32, ptr %6, align 4
  %12 = icmp slt i32 %11, 5
  br i1 %12, label %13, label %23

13:                                               ; preds = %2
  %14 = load ptr, ptr %4, align 8
  %15 = call noundef double @_ZNK6AbsSeq4davgEv(ptr noundef nonnull align 8 dereferenceable(56) %14)
  %16 = load i32, ptr %6, align 4
  %17 = sub nsw i32 5, %16
  %18 = sitofp i32 %17 to double
  %19 = fmul double %15, %18
  %20 = fdiv double %19, 2.000000e+00
  %21 = load double, ptr %5, align 8
  %22 = call noundef double @_Z4MAX2IdET_S0_S0_(double noundef %20, double noundef %21)
  store double %22, ptr %5, align 8
  br label %23

23:                                               ; preds = %13, %2
  %24 = load double, ptr %5, align 8
  ret double %24
}

; Function Attrs: mustprogress nounwind uwtable
define linkonce_odr hidden noundef double @_Z4MAX2IdET_S0_S0_(double noundef %0, double noundef %1) #1 comdat {
  %3 = alloca double, align 8
  %4 = alloca double, align 8
  store double %0, ptr %3, align 8
  store double %1, ptr %4, align 8
  %5 = load double, ptr %3, align 8
  %6 = load double, ptr %4, align 8
  %7 = fcmp ogt double %5, %6
  br i1 %7, label %8, label %10

8:                                                ; preds = %2
  %9 = load double, ptr %3, align 8
  br label %12

10:                                               ; preds = %2
  %11 = load double, ptr %4, align 8
  br label %12

12:                                               ; preds = %10, %8
  %13 = phi double [ %9, %8 ], [ %11, %10 ]
  ret double %13
}

; Function Attrs: mustprogress nounwind uwtable
define linkonce_odr hidden noundef double @_ZNK13G1Predictions7predictEPK12TruncatedSeq(ptr noundef nonnull align 8 dereferenceable(8) %0, ptr noundef %1) #1 comdat align 2 {
  %3 = alloca ptr, align 8
  %4 = alloca ptr, align 8
  store ptr %0, ptr %3, align 8
  store ptr %1, ptr %4, align 8
  %5 = load ptr, ptr %3, align 8
  %6 = load ptr, ptr %4, align 8
  %7 = call noundef double @_ZNK6AbsSeq4davgEv(ptr noundef nonnull align 8 dereferenceable(56) %6)
  %8 = getelementptr inbounds %class.G1Predictions, ptr %5, i32 0, i32 0
  %9 = load double, ptr %8, align 8
  %10 = load ptr, ptr %4, align 8
  %11 = call noundef double @_ZNK13G1Predictions15stddev_estimateEPK12TruncatedSeq(ptr noundef nonnull align 8 dereferenceable(8) %5, ptr noundef %10)
  %12 = call double @llvm.fmuladd.f64(double %9, double %11, double %7)
  ret double %12
}

; Function Attrs: mustprogress nounwind uwtable
define linkonce_odr hidden noundef double @_ZNK13G1Predictions20predict_zero_boundedEPK12TruncatedSeq(ptr noundef nonnull align 8 dereferenceable(8) %0, ptr noundef %1) #1 comdat align 2 {
  %3 = alloca ptr, align 8
  %4 = alloca ptr, align 8
  store ptr %0, ptr %3, align 8
  store ptr %1, ptr %4, align 8
  %5 = load ptr, ptr %3, align 8
  %6 = load ptr, ptr %4, align 8
  %7 = call noundef double @_ZNK13G1Predictions7predictEPK12TruncatedSeq(ptr noundef nonnull align 8 dereferenceable(8) %5, ptr noundef %6)
  %8 = call noundef double @_Z4MAX2IdET_S0_S0_(double noundef %7, double noundef 0.000000e+00)
  ret double %8
}

; Function Attrs: mustprogress nounwind uwtable
define hidden noundef double @_ZNK11G1Analytics20predict_zero_boundedEPK12TruncatedSeq(ptr noundef nonnull align 8 dereferenceable(2048) %0, ptr noundef %1) #1 align 2 {
  %3 = alloca ptr, align 8
  %4 = alloca ptr, align 8
  store ptr %0, ptr %3, align 8
  store ptr %1, ptr %4, align 8
  %5 = load ptr, ptr %3, align 8
  %6 = getelementptr inbounds %class.G1Analytics, ptr %5, i32 0, i32 0
  %7 = load ptr, ptr %6, align 8
  %8 = load ptr, ptr %4, align 8
  %9 = call noundef double @_ZNK13G1Predictions20predict_zero_boundedEPK12TruncatedSeq(ptr noundef nonnull align 8 dereferenceable(8) %7, ptr noundef %8)
  ret double %9
}

; Function Attrs: mustprogress nounwind uwtable
define hidden noundef i64 @_ZNK11G1Analytics12predict_sizeEPK12TruncatedSeq(ptr noundef nonnull align 8 dereferenceable(2048) %0, ptr noundef %1) #1 align 2 {
  %3 = alloca ptr, align 8
  %4 = alloca ptr, align 8
  store ptr %0, ptr %3, align 8
  store ptr %1, ptr %4, align 8
  %5 = load ptr, ptr %3, align 8
  %6 = load ptr, ptr %4, align 8
  %7 = call noundef double @_ZNK11G1Analytics20predict_zero_boundedEPK12TruncatedSeq(ptr noundef nonnull align 8 dereferenceable(2048) %5, ptr noundef %6)
  %8 = fptoui double %7 to i64
  ret i64 %8
}